(dp0
Vplatform/external/eclipse-basebuilder
p1
F14.711807012557983
sVplatform/external/safe-iop
p2
F0.901604175567627
sVplatform/frameworks/compile/libbcc
p3
F1.7786250114440918
sVplatform/pdk
p4
F0.870621919631958
sVplatform/external/chromium_org/third_party/sfntly/cpp/src
p5
F1.1856520175933838
sVplatform/external/lzma
p6
F8.641812801361084
sVplatform/tools/external/gradle
p7
F43.92687010765076
sVplatform/packages/wallpapers/MagicSmoke
p8
F0.7137701511383057
sVplatform/hardware/qcom/display
p9
F1.4003119468688965
sVplatform/external/dropbear
p10
F1.0145039558410645
sVplatform/external/hamcrest
p11
F0.6571190357208252
sVplatform/external/harfbuzz_ng
p12
F1.6986968517303467
sVplatform/external/libogg
p13
F1.0164551734924316
sVplatform/system/core
p14
F4.230999231338501
sVplatform/external/speex
p15
F1.1494817733764648
sVplatform/frameworks/opt/calendar
p16
F0.6973228454589844
sVplatform/frameworks/opt/widget
p17
F2.682749032974243
sVplatform/external/chromium_org/tools/grit
p18
F0.9205679893493652
sVplatform/hardware/libhardware
p19
F2.1105899810791016
sVplatform/external/webrtc
p20
F1.14068603515625
sVplatform/prebuilts/clang/linux-x86/x86/3.3
p21
F0.5610110759735107
sVplatform/hardware/ti/omap4xxx
p22
F1.449455976486206
sVplatform/external/chromium_org/third_party/yasm/source/patched-yasm
p23
F1.1664118766784668
sVplatform/external/ppp
p24
F1.3352060317993164
sVplatform/external/markdown
p25
F1.1079800128936768
sVplatform/external/eclipse-windowbuilder
p26
F1.0130980014801025
sVplatform/external/kernel-headers
p27
F1.135416030883789
sVplatform/external/expat
p28
F1.1149101257324219
sVplatform/external/arduino
p29
F1.965768814086914
sVplatform/external/mksh
p30
F0.8584189414978027
sVplatform/external/svox
p31
F2.1564929485321045
sVplatform/external/chromium_org/tools/gyp
p32
F12.330428123474121
sVplatform/frameworks/compile/slang
p33
F1.222465991973877
sVplatform/external/sepolicy
p34
F1.4756319522857666
sVplatform/hardware/qcom/sensors
p35
F1.1247398853302002
sVplatform/hardware/qcom/msm8960
p36
F0.8670680522918701
sVplatform/external/giflib
p37
F1.456268072128296
sVplatform/external/nist-pkits
p38
F0.594153881072998
sVplatform/hardware/ti/omap3
p39
F2.9992809295654297
sVplatform/external/compiler-rt
p40
F3.4214911460876465
sVplatform/packages/apps/Phone
p41
F4.103865146636963
sVplatform/external/emma
p42
F1.3896491527557373
sVplatform/packages/apps/QuickSearchBox
p43
F1.8986239433288574
sVplatform/external/v8
p44
F3.383064031600952
sVplatform/packages/apps/KeyChain
p45
F1.074678897857666
sVplatform/external/harfbuzz
p46
F1.163666009902954
sVplatform/system/netd
p47
F0.9751720428466797
sVplatform/external/libvpx
p48
F2.215146064758301
sVplatform/prebuilts/clang/darwin-x86/arm/3.3
p49
F0.7848100662231445
sVplatform/build
p50
F6.19168496131897
sVplatform/external/chromium-libpac
p51
F0.875913143157959
sVplatform/external/freetype
p52
F3.310667037963867
sVplatform/hardware/broadcom/wlan
p53
F2.8513269424438477
sVplatform/external/blktrace
p54
F0.9697220325469971
sVplatform/external/libpng
p55
F1.1799421310424805
sVplatform/external/iputils
p56
F1.4822659492492676
sVplatform/prebuilts/misc
p57
F15.649174928665161
sVplatform/external/ganymed-ssh2
p58
F0.5935800075531006
sVdevice/common
p59
F0.8098850250244141
sVplatform/external/fdlibm
p60
F0.9921209812164307
sVplatform/external/bison
p61
F1.4338750839233398
sVplatform/packages/apps/SoundRecorder
p62
F0.6865980625152588
sVplatform/prebuilts/gcc/darwin-x86/mips/mipsel-linux-android-4.7
p63
F7.243743896484375
sVdevice/generic/common
p64
F0.9399738311767578
sVplatform/external/hyphenation
p65
F0.7081949710845947
sVplatform/prebuilts/tools
p66
F13.060334920883179
sVplatform/external/jhead
p67
F0.6526858806610107
sVplatform/packages/apps/VideoEditor
p68
F2.079465866088867
sVplatform/developers/docs
p69
F1.047055959701538
sVplatform/external/aac
p70
F4.87810206413269
sVplatform/prebuilts/gcc/darwin-x86/arm/arm-eabi-4.6
p71
F3.6042940616607666
sVplatform/prebuilts/gcc/darwin-x86/arm/arm-eabi-4.7
p72
F5.5485358238220215
sVdevice/samsung/manta
p73
F85.50898909568787
sVplatform/external/libpcap
p74
F6.135037899017334
sVplatform/external/llvm
p75
F33.89890193939209
sVplatform/packages/apps/BasicSmsReceiver
p76
F1.0165050029754639
sVplatform/hardware/samsung_slsi/exynos5
p77
F1.3180651664733887
sVplatform/external/mockito
p78
F1.0259730815887451
sVplatform/system/vold
p79
F2.1693520545959473
sVplatform/external/xmp_toolkit
p80
F1.3995580673217773
sVplatform/external/iproute2
p81
F1.0432188510894775
sVplatform/external/tinyxml2
p82
F3.6106319427490234
sVplatform/external/libgsm
p83
F0.9413928985595703
sVplatform/hardware/qcom/camera
p84
F2.544762134552002
sVplatform/frameworks/rs
p85
F2.4762308597564697
sVdevice/google/accessory/arduino
p86
F0.8545858860015869
sVplatform/external/chromium_org/third_party/skia/src
p87
F2.066545009613037
sVplatform/frameworks/opt/mailcommon
p88
F1.1251130104064941
sVplatform/external/ant-glob
p89
F0.7283258438110352
sVplatform/external/easymock
p90
F1.0972590446472168
sVplatform/external/sil-fonts
p91
F0.6678740978240967
sVplatform/packages/apps/Calculator
p92
F1.1909890174865723
sVplatform/frameworks/wilhelm
p93
F1.6072680950164795
sVplatform/external/android-clat
p94
F0.7664508819580078
sVplatform/external/guava
p95
F1.3924098014831543
sVplatform/frameworks/ml
p96
F0.9723899364471436
sVdevice/generic/goldfish
p97
F1.093554973602295
sVplatform/external/chromium_org/third_party/leveldatabase/src
p98
F3.059890031814575
sVplatform/packages/apps/UnifiedEmail
p99
F4.135617017745972
sVplatform/external/checkpolicy
p100
F0.9094529151916504
sVplatform/hardware/qcom/power
p101
F0.6395268440246582
sVplatform/packages/providers/DownloadProvider
p102
F1.353454828262329
sVplatform/external/libssh2
p103
F0.9320149421691895
sVplatform/hardware/akm
p104
F0.7008178234100342
sVplatform/packages/apps/Provision
p105
F0.8401651382446289
sVplatform/packages/apps/Camera
p106
F8.578001022338867
sVplatform/prebuilts/sdk
p107
F111.91737294197083
sVplatform/prebuilts/gradle-plugin
p108
F11.15100908279419
sVplatform/libnativehelper
p109
F1.1959800720214844
sVplatform/external/mp4parser
p110
F1.2203261852264404
sVplatform/external/zlib
p111
F1.1602411270141602
sVplatform/external/dexmaker
p112
F1.852687120437622
sVplatform/external/sonivox
p113
F1.884174108505249
sVplatform/external/libmtp
p114
F0.8502509593963623
sVplatform/bootable/recovery
p115
F1.2608211040496826
sVplatform/hardware/broadcom/libbt
p116
F0.5044848918914795
sVplatform/development
p117
F41.30519986152649
sVplatform/external/antlr
p118
F4.411701917648315
sVplatform/external/wpa_supplicant_8
p119
F2.9052281379699707
sVplatform/packages/providers/UserDictionaryProvider
p120
F1.15106201171875
sVplatform/external/chromium_org/third_party/angle
p121
F2.1834609508514404
sVplatform/developers/demos
p122
F0.6891090869903564
sVplatform/hardware/ti/wlan
p123
F1.113257884979248
sVplatform/external/ceres-solver
p124
F3.3437819480895996
sVplatform/external/chromium_org/third_party/openssl
p125
F1.1219189167022705
sVplatform/external/dnsmasq
p126
F0.779263973236084
sVplatform/external/genext2fs
p127
F0.7324011325836182
sVplatform/prebuilts/gcc/linux-x86/x86/x86_64-linux-android-4.7
p128
F3.7628400325775146
sVplatform/external/xmlwriter
p129
F0.7090651988983154
sVplatform/packages/wallpapers/NoiseField
p130
F2.378203868865967
sVplatform/external/qemu-pc-bios
p131
F0.7383477687835693
sVplatform/external/stlport
p132
F1.1126620769500732
sVplatform/packages/apps/VoiceDialer
p133
F0.828942060470581
sVplatform/packages/apps/SpareParts
p134
F0.5982341766357422
sVplatform/external/noto-fonts
p135
F1.5518221855163574
sVplatform/external/chromium_org/v8
p136
F8.746829986572266
sVplatform/external/esd
p137
F1.282642126083374
sVplatform/prebuilts/gcc/darwin-x86/host/i686-apple-darwin-4.2.1
p138
F3.929628849029541
sVplatform/frameworks/opt/timezonepicker
p139
F4.837986946105957
sVplatform/external/elfutils
p140
F2.016597032546997
sVplatform/prebuilts/clang/linux-x86/3.2
p141
F0.7844588756561279
sVplatform/prebuilts/clang/linux-x86/3.1
p142
F2.3856799602508545
sVplatform/external/netperf
p143
F1.0948591232299805
sVplatform/external/valgrind
p144
F7.2848029136657715
sVplatform/external/icu4c
p145
F13.959674835205078
sVplatform/hardware/qcom/wlan
p146
F0.659235954284668
sVplatform/prebuilts/gcc/linux-x86/host/x86_64-linux-glibc2.7-4.6
p147
F3.2849090099334717
sVplatform/packages/apps/Gallery
p148
F0.8848228454589844
sVplatform/packages/wallpapers/LivePicker
p149
F1.6420948505401611
sVplatform/external/open-vcdiff
p150
F0.7019479274749756
sVplatform/external/objenesis
p151
F0.6497881412506104
sVplatform/external/chromium_org/third_party/mesa/src
p152
F1.5788028240203857
sVplatform/external/smack
p153
F1.0596370697021484
sVplatform/external/dhcpcd
p154
F1.0390369892120361
sVplatform/external/android-mock
p155
F0.7969319820404053
sVplatform/prebuilts/gcc/darwin-x86/mips/mipsel-linux-android-4.6
p156
F4.837992906570435
sVplatform/system/media
p157
F4.408541202545166
sVplatform/prebuilts/devtools
p158
F12.215637922286987
sVplatform/external/libcap-ng
p159
F0.9845340251922607
sVplatform/external/marisa-trie
p160
F0.9154109954833984
sVplatform/external/chromium_org
p161
F89.73643612861633
sVplatform/external/opencv
p162
F1.345569133758545
sVplatform/packages/apps/CertInstaller
p163
F2.581289052963257
sVplatform/external/tcpdump
p164
F0.9125380516052246
sVplatform/external/embunit
p165
F0.6773090362548828
sVplatform/frameworks/opt/net/voip
p166
F0.9472200870513916
sVplatform/frameworks/mff
p167
F0.7793400287628174
sVplatform/packages/inputmethods/OpenWnn
p168
F1.541450023651123
sVplatform/prebuilts/gcc/darwin-x86/x86/x86_64-linux-android-4.7
p169
F4.9179160594940186
sVplatform/external/bsdiff
p170
F0.7762529850006104
sVplatform/packages/providers/ApplicationsProvider
p171
F1.0462610721588135
sVplatform/external/chromium_org/third_party/opus/src
p172
F0.8219029903411865
sVplatform/external/apache-xml
p173
F0.9232010841369629
sVplatform/external/nist-sip
p174
F1.186636209487915
sVplatform/external/oauth
p175
F0.6439681053161621
sVplatform/packages/apps/Dialer
p176
F1.4873619079589844
sVplatform/prebuilts/clang/linux-x86/host/3.3
p177
F2.250901937484741
sVplatform/external/apache-harmony
p178
F1.4994490146636963
sVplatform/external/neven
p179
F0.698807954788208
sVplatform/external/bouncycastle
p180
F1.4463169574737549
sVplatform/frameworks/compile/mclinker
p181
F2.737697124481201
sVplatform/prebuilts/gcc/darwin-x86/x86/i686-linux-android-4.6
p182
F6.235462188720703
sVplatform/prebuilts/gcc/darwin-x86/x86/i686-linux-android-4.7
p183
F5.4112231731414795
sVplatform/prebuilts/gcc/linux-x86/host/i686-linux-glibc2.7-4.6
p184
F3.50211501121521
sVplatform/external/jdiff
p185
F0.7148070335388184
sVplatform/external/eyes-free
p186
F0.5710878372192383
sVplatform/external/sqlite
p187
F3.2758429050445557
sVplatform/packages/screensavers/PhotoTable
p188
F1.4076080322265625
sVplatform/prebuilts/gcc/darwin-x86/host/headers
p189
F0.9219748973846436
sVplatform/external/chromium_org/testing/gtest
p190
F1.0806970596313477
sVplatform/external/proguard
p191
F1.549372911453247
sVplatform/packages/services/Telephony
p192
F3.8834190368652344
sVplatform/packages/apps/Nfc
p193
F2.076792001724243
sVplatform/packages/apps/CellBroadcastReceiver
p194
F0.9095079898834229
sVplatform/packages/apps/Settings
p195
F28.52207112312317
sVplatform/external/chromium_org/third_party/eyesfree/src/android/java/src/com/googlecode/eyesfree/braille
p196
F0.623223066329956
sVplatform/frameworks/base
p197
F206.67711305618286
sVplatform/packages/apps/Launcher3
p198
F4.860946893692017
sVplatform/packages/apps/Launcher2
p199
F8.172096967697144
sVplatform/packages/wallpapers/Galaxy4
p200
F1.7723171710968018
sVplatform/frameworks/ex
p201
F4.233508825302124
sVplatform/external/libselinux
p202
F0.9444379806518555
sVplatform/packages/apps/Camera2
p203
F5.54891300201416
sVplatform/external/clang
p204
F28.56669306755066
sVplatform/frameworks/opt/vcard
p205
F0.6671531200408936
sVplatform/external/replicaisland
p206
F1.2295360565185547
sVplatform/prebuilts/gcc/darwin-x86/arm/arm-linux-androideabi-4.7
p207
F4.291240215301514
sVplatform/prebuilts/gcc/darwin-x86/arm/arm-linux-androideabi-4.6
p208
F5.6351518630981445
sVplatform/external/qemu
p209
F2.853800058364868
sVplatform/external/chromium_org/third_party/skia/gyp
p210
F1.1260221004486084
sVplatform/frameworks/opt/emoji
p211
F0.6781017780303955
sVplatform/hardware/invensense
p212
F0.7569739818572998
sVplatform/packages/wallpapers/PhaseBeam
p213
F0.7562878131866455
sVplatform/prebuilts/gcc/linux-x86/arm/arm-linux-androideabi-4.7
p214
F10.38582992553711
sVplatform/prebuilts/gcc/linux-x86/arm/arm-linux-androideabi-4.6
p215
F22.557541847229004
sVplatform/prebuilts/gcc/linux-x86/x86/i686-linux-android-4.7
p216
F4.595826864242554
sVdevice/generic/mini-emulator-mips
p217
F0.8314049243927002
sVplatform/packages/apps/Gallery2
p218
F14.715005159378052
sVdevice/lge/hammerhead
p219
F1.0314319133758545
sVplatform/external/libnl-headers
p220
F0.6075360774993896
sVplatform/external/libyuv
p221
F0.6801660060882568
sVplatform/external/libsepol
p222
F1.135349988937378
sVplatform/libcore
p223
F7.773967981338501
sVplatform/hardware/qcom/keymaster
p224
F0.8314399719238281
sVplatform/external/bluetooth/bluedroid
p225
F6.5266969203948975
sVplatform/tools/external/fat32lib
p226
F0.6813418865203857
sVplatform/hardware/qcom/media
p227
F1.2139291763305664
sVplatform/external/google-diff-match-patch
p228
F1.1885781288146973
sVplatform/external/libphonenumber
p229
F1.6518120765686035
sVdevice/asus/flo
p230
F1.7383170127868652
sVplatform/prebuilts/ndk
p231
F18.514822006225586
sVdevice/generic/mini-emulator-x86
p232
F1.0758869647979736
sVplatform/external/junit
p233
F1.8587570190429688
sVplatform/external/chromium_org/third_party/WebKit
p234
F38.301072120666504
sVplatform/packages/apps/Email
p235
F5.692373991012573
sVplatform/external/chromium_org/third_party/smhasher/src
p236
F2.4401230812072754
sVplatform/prebuilts/clang/darwin-x86/3.2
p237
F0.6779670715332031
sVplatform/prebuilts/clang/darwin-x86/3.1
p238
F1.2539129257202148
sVplatform/packages/apps/PackageInstaller
p239
F1.3561511039733887
sVplatform/packages/providers/PartnerBookmarksProvider
p240
F0.7354590892791748
sVplatform/packages/apps/LegacyCamera
p241
F2.35568904876709
sVplatform/external/libnfc-nxp
p242
F0.8534579277038574
sVplatform/external/mesa3d
p243
F19.093688011169434
sVplatform/external/javasqlite
p244
F0.9458320140838623
sVplatform/packages/apps/Tag
p245
F0.8506639003753662
sVplatform/developers/build
p246
F1.1835331916809082
sVplatform/hardware/qcom/msm8x74
p247
F0.7799549102783203
sVdevice/google/accessory/demokit
p248
F0.8368730545043945
sVplatform/prebuilts/gcc/linux-x86/x86/i686-linux-android-4.6
p249
F4.661531925201416
sVplatform/external/srtp
p250
F2.4976680278778076
sVplatform/external/littlemock
p251
F0.7934260368347168
sVplatform/frameworks/av
p252
F5.98506498336792
sVdevice/sample
p253
F0.9721310138702393
sVplatform/external/regex-re2
p254
F1.1074328422546387
sVplatform/packages/wallpapers/MusicVisualization
p255
F3.1457579135894775
sVplatform/prebuilts/clang/darwin-x86/mips/3.3
p256
F0.7280211448669434
sVplatform/external/chromium-trace
p257
F3.3525309562683105
sVplatform/prebuilts/clang/darwin-x86/host/3.3
p258
F1.6840178966522217
sVplatform/prebuilts/eclipse
p259
F22.9653639793396
sVplatform/external/jsr305
p260
F0.6479699611663818
sVplatform/packages/inputmethods/LatinIME
p261
F31.29974102973938
sVplatform/external/smali
p262
F2.2232608795166016
sVplatform/frameworks/opt/telephony
p263
F1.6576578617095947
sVplatform/external/mtpd
p264
F1.0393149852752686
sVplatform/external/tinycompress
p265
F0.6496181488037109
sVplatform/bionic
p266
F3.655916213989258
sVplatform/prebuilts/gcc/linux-x86/host/i686-linux-glibc2.7-4.4.3
p267
F8.473443984985352
sVplatform/external/libusb
p268
F0.7767210006713867
sVplatform/packages/apps/MusicFX
p269
F0.8435859680175781
sVplatform/external/jsilver
p270
F0.7683429718017578
sVplatform/frameworks/opt/inputmethodcommon
p271
F0.7968339920043945
sVplatform/packages/apps/Contacts
p272
F4.124783992767334
sVplatform/packages/apps/Browser
p273
F3.4431591033935547
sVplatform/packages/apps/HTMLViewer
p274
F0.8191931247711182
sVplatform/art
p275
F13.767189025878906
sVdevice/lge/mako-kernel
p276
F88.93620991706848
sVplatform/external/chromium_org/third_party/libphonenumber/src/phonenumbers
p277
F1.7246589660644531
sVplatform/packages/apps/SmartCardService
p278
F0.6323459148406982
sVplatform/external/strace
p279
F1.871190071105957
sVdevice/generic/x86
p280
F0.6135318279266357
sVplatform/abi/cpp
p281
F0.8646399974822998
sVplatform/external/yaffs2
p282
F0.811427116394043
sVplatform/packages/wallpapers/HoloSpiral
p283
F1.8140840530395508
sVplatform/frameworks/volley
p284
F2.1316959857940674
sVplatform/external/e2fsprogs
p285
F5.062221050262451
sVplatform/packages/apps/Bluetooth
p286
F1.3808329105377197
sVplatform/external/mdnsresponder
p287
F0.8437750339508057
sVplatform/external/fsck_msdos
p288
F4.467578887939453
sVplatform/cts
p289
F10.960539102554321
sVplatform/external/libxslt
p290
F0.6851749420166016
sVplatform/packages/screensavers/WebView
p291
F0.8830671310424805
sVdevice/asus/tilapia
p292
F1.152359962463379
sVplatform/hardware/ril
p293
F1.2994699478149414
sVplatform/external/chromium
p294
F9.008249044418335
sVplatform/external/libxml2
p295
F1.2554779052734375
sVplatform/hardware/qcom/bt
p296
F1.5630810260772705
sVplatform/external/jmdns
p297
F0.54899001121521
sVplatform/external/protobuf
p298
F1.257004976272583
sVdevice/generic/armv7-a-neon
p299
F0.7969698905944824
sVplatform/system/security
p300
F0.8040618896484375
sVplatform/external/libppp
p301
F0.8853099346160889
sVplatform/external/stressapptest
p302
F0.5845308303833008
sVdevice/lge/hammerhead-kernel
p303
F1018.4331800937653
sVplatform/external/jpeg
p304
F0.9404079914093018
sVplatform/external/javassist
p305
F1.2335808277130127
sVplatform/packages/apps/Mms
p306
F2.894937038421631
sVplatform/frameworks/opt/photoviewer
p307
F1.1322648525238037
sVplatform/prebuilts/runtime
p308
F0.6645350456237793
sVplatform/packages/apps/ContactsCommon
p309
F1.4387290477752686
sVplatform/prebuilts/python/linux-x86/2.7.5
p310
F11.176143884658813
sVplatform/external/timezonepicker-support
p311
F0.6933319568634033
sVplatform/external/tremolo
p312
F0.7390778064727783
sVplatform/external/jack
p313
F1.2405929565429688
sVplatform/external/gtest
p314
F1.1556861400604248
sVplatform/external/scrypt
p315
F1.2609739303588867
sVplatform/external/skia
p316
F3.1040470600128174
sVplatform/external/netcat
p317
F0.6439130306243896
sVplatform/hardware/ti/wpan
p318
F0.8321609497070312
sVplatform/external/chromium_org/third_party/freetype
p319
F1.562040090560913
sVplatform/packages/providers/ContactsProvider
p320
F2.983588933944702
sVplatform/external/mockwebserver
p321
F1.0352230072021484
sVplatform/packages/providers/TelephonyProvider
p322
F4.0613648891448975
sVplatform/external/ipsec-tools
p323
F0.8918399810791016
sVplatform/external/srec
p324
F7.598620891571045
sVplatform/external/libvorbis
p325
F0.7150740623474121
sVdevice/lge/mako
p326
F3.031808853149414
sVplatform/packages/screensavers/Basic
p327
F1.10158109664917
sVplatform/packages/apps/Stk
p328
F1.52290678024292
sVplatform/external/iptables
p329
F1.4349908828735352
sVplatform/external/chromium_org/third_party/ots
p330
F0.7463629245758057
sVdevice/asus/grouper
p331
F141.6711449623108
sVplatform/frameworks/native
p332
F4.334033966064453
sVplatform/packages/apps/InCallUI
p333
F8.13683795928955
sVdevice/asus/flo-kernel
p334
F169.34582114219666
sVplatform/bootable/diskinstaller
p335
F0.7679510116577148
sVplatform/frameworks/webview
p336
F1.3792190551757812
sVplatform/external/jmonkeyengine
p337
F2.6077139377593994
sVplatform/external/okhttp
p338
F0.8639791011810303
sVplatform/prebuilts/python/darwin-x86/2.7.5
p339
F1.819108009338379
sVplatform/external/sfntly
p340
F2.4714159965515137
sVplatform/packages/providers/CalendarProvider
p341
F1.1495180130004883
sVplatform/external/chromium_org/third_party/libjingle/source/talk
p342
F1.966543197631836
sVplatform/hardware/libhardware_legacy
p343
F1.0095298290252686
sVplatform/system/extras
p344
F1.587770938873291
sVplatform/packages/apps/Music
p345
F2.4402520656585693
sVplatform/external/zxing
p346
F1.3372118473052979
sVplatform/external/apache-http
p347
F2.17809796333313
sVplatform/external/tinyxml
p348
F1.471782922744751
sVplatform/external/apache-qp
p349
F0.6895110607147217
sVplatform/prebuilts/clang/linux-x86/mips/3.3
p350
F1.1121740341186523
sVplatform/packages/apps/SpeechRecorder
p351
F0.9059529304504395
sVplatform/frameworks/opt/colorpicker
p352
F0.6274580955505371
sVplatform/prebuilts/gcc/linux-x86/mips/mipsel-linux-android-4.7
p353
F8.761092901229858
sVplatform/prebuilts/gcc/linux-x86/mips/mipsel-linux-android-4.6
p354
F3.8626909255981445
sVplatform/packages/apps/Protips
p355
F0.6857309341430664
sVplatform/external/eigen
p356
F0.8995769023895264
sVplatform/packages/inputmethods/PinyinIME
p357
F0.8290829658508301
sVplatform/external/openfst
p358
F1.027965784072876
sVplatform/external/pixman
p359
F1.7780749797821045
sVplatform/external/tagsoup
p360
F0.5427401065826416
sVplatform/hardware/qcom/audio
p361
F0.8215279579162598
sVplatform/external/linux-tools-perf
p362
F4.997767925262451
sVplatform/packages/apps/OneTimeInitializer
p363
F0.7060070037841797
sVplatform/frameworks/opt/datetimepicker
p364
F0.7784099578857422
sVplatform/frameworks/support
p365
F1.8201019763946533
sVplatform/prebuilts/clang/darwin-x86/x86/3.3
p366
F0.609752893447876
sVplatform/dalvik
p367
F6.118285179138184
sVplatform/external/doclava
p368
F1.5000569820404053
sVplatform/external/chromium_org/third_party/icu
p369
F10.638592958450317
sVplatform/external/chromium_org/third_party/skia/include
p370
F1.123901128768921
sVplatform/external/grub
p371
F0.8162920475006104
sVplatform/prebuilts/qemu-kernel
p372
F35.766855001449585
sVplatform/external/openssh
p373
F9.357704877853394
sVplatform/external/webp
p374
F3.740246057510376
sVplatform/packages/apps/PhoneCommon
p375
F0.6809861660003662
sVplatform/external/openssl
p376
F2.196371078491211
sVplatform/packages/apps/Exchange
p377
F4.704279184341431
sVdevice/generic/mips
p378
F0.825186014175415
sVplatform/bootable/bootloader/legacy
p379
F0.7193610668182373
sVplatform/ndk
p380
F4.652252912521362
sVplatform/developers/samples/android
p381
F2.6202409267425537
sVplatform/docs/source.android.com
p382
F8.312839984893799
sVplatform/external/naver-fonts
p383
F0.9624261856079102
sVplatform/external/chromium_org/sdch/open-vcdiff
p384
F1.0672328472137451
sVplatform/packages/providers/MediaProvider
p385
F1.8227479457855225
sVplatform/external/liblzf
p386
F0.8691139221191406
sVplatform/external/bzip2
p387
F1.1654331684112549
sVplatform/prebuilts/gcc/linux-x86/arm/arm-eabi-4.6
p388
F13.260638952255249
sVplatform/prebuilts/gcc/linux-x86/arm/arm-eabi-4.7
p389
F4.072433948516846
sVplatform/external/oprofile
p390
F1.11342191696167
sVplatform/frameworks/testing
p391
F0.9032950401306152
sVplatform/sdk
p392
F4.409074068069458
sVplatform/prebuilts/clang/linux-x86/arm/3.3
p393
F1.6072919368743896
sVplatform/external/robolectric
p394
F1.8835749626159668
sVplatform/external/libnfc-nci
p395
F0.9118320941925049
sVplatform/external/libexif
p396
F6.465084075927734
sVplatform/frameworks/opt/carddav
p397
F3.2637991905212402
sVplatform/frameworks/opt/mms
p398
F0.6384720802307129
sVplatform/prebuilts/maven_repo/android
p399
F1.6420187950134277
sVplatform/external/libusb-compat
p400
F0.8746650218963623
sVplatform/packages/wallpapers/Basic
p401
F1.3735759258270264
sVplatform/packages/apps/Calendar
p402
F3.2495920658111572
sVplatform/external/tinyalsa
p403
F0.606410026550293
sVplatform/packages/experimental
p404
F0.9711029529571533
sVdevice/generic/mini-emulator-armv7-a-neon
p405
F0.7084968090057373
sVplatform/external/droiddriver
p406
F0.8787131309509277
sVplatform/external/chromium_org/third_party/libphonenumber/src/resources
p407
F7.678084135055542
sVplatform/packages/apps/DeskClock
p408
F2.546863079071045
sVplatform/external/flac
p409
F1.6201200485229492
sVplatform/external/libffi
p410
F1.0824639797210693
sVplatform/external/gcc-demangle
p411
F0.7344481945037842
sVdevice/asus/deb
p412
F2.9969120025634766
s.